; Function Attrs: mustprogress nofree norecurse nosync nounwind willreturn memory(argmem: read) uwtable
define hidden noundef range(i32 -1, 2) i32 @_ZN19ciConstantPoolCache11key_compareERKiS1_(ptr nocapture noundef nonnull readonly align 4 dereferenceable(4) %0, ptr nocapture noundef nonnull readonly align 4 dereferenceable(4) %1) local_unnamed_addr #2 align 2 {
  %3 = load i32, ptr %0, align 4
  %4 = load i32, ptr %1, align 4
  %5 = icmp slt i32 %3, %4
  %6 = icmp sgt i32 %3, %4
  %. = zext i1 %6 to i32
  %.0 = select i1 %5, i32 -1, i32 %.
  ret i32 %.0
}